target datalayout = "e-m:e-p270:32:32-p271:32:32-p272:64:64-i64:64-i128:128-f80:128-n8:16:32:64-S128"
target triple = "x86_64-pc-linux-gnu"

%struct._rio = type { ptr, ptr, ptr, ptr, ptr, i64, i64, i64, i64, %union.anon }
%union.anon = type { %struct.anon.2 }
%struct.anon.2 = type { ptr, i64, ptr, i64, i64 }
%struct.anon.0 = type { ptr, i64 }
%struct.client = type { i64, i64, ptr, i8, i8, i8, i8, i32, ptr, ptr, ptr, ptr, ptr, i64, i64, i32, ptr, i32, i32, ptr, i64, ptr, ptr, ptr, ptr, ptr, i32, i32, i64, ptr, i64, ptr, i64, i64, i64, i32, ptr, i64, i64, i32, i32, i32, i32, i64, i64, ptr, i64, i64, i64, i64, i64, i64, i64, i64, [41 x i8], i32, ptr, i32, i32, i64, %struct.multiState, %struct.blockingState, i64, ptr, ptr, ptr, ptr, ptr, ptr, ptr, ptr, ptr, ptr, ptr, ptr, ptr, ptr, i64, ptr, i64, i32, ptr, ptr, ptr, i64, %struct.listNode, i64, i64, i32, i64, ptr }
%struct.multiState = type { ptr, i32, i32, i32, i64, i32 }
%struct.blockingState = type { i32, i64, i32, ptr, i32, i32, i64, ptr, ptr, i64 }
%struct.listNode = type { ptr, ptr, ptr }
%struct.redisDb = type { ptr, ptr, ptr, ptr, ptr, ptr, ptr, i32, i64, i64, ptr }

; Function Attrs: nounwind uwtable
define dso_local void @dumpCommand(ptr noundef %0) #0 {
  %2 = alloca ptr, align 8
  %3 = alloca ptr, align 8
  %4 = alloca %struct._rio, align 8
  %5 = alloca i32, align 4
  store ptr %0, ptr %2, align 8, !tbaa !53
  call void @llvm.lifetime.start.p0(i64 8, ptr %3) #14
  call void @llvm.lifetime.start.p0(i64 112, ptr %4) #14
  %6 = load ptr, ptr %2, align 8, !tbaa !53
  %7 = getelementptr inbounds nuw %struct.client, ptr %6, i32 0, i32 8
  %8 = load ptr, ptr %7, align 8, !tbaa !54
  %9 = load ptr, ptr %2, align 8, !tbaa !53
  %10 = getelementptr inbounds nuw %struct.client, ptr %9, i32 0, i32 16
  %11 = load ptr, ptr %10, align 8, !tbaa !64
  %12 = getelementptr inbounds ptr, ptr %11, i64 1
  %13 = load ptr, ptr %12, align 8, !tbaa !45
  %14 = call ptr @lookupKeyRead(ptr noundef %8, ptr noundef %13)
  store ptr %14, ptr %3, align 8, !tbaa !45
  %15 = icmp eq ptr %14, null
  br i1 %15, label %16, label %18

16:                                               ; preds = %1
  %17 = load ptr, ptr %2, align 8, !tbaa !53
  call void @addReplyNull(ptr noundef %17)
  store i32 1, ptr %5, align 4
  br label %34

18:                                               ; preds = %1
  %19 = load ptr, ptr %3, align 8, !tbaa !45
  %20 = load ptr, ptr %2, align 8, !tbaa !53
  %21 = getelementptr inbounds nuw %struct.client, ptr %20, i32 0, i32 16
  %22 = load ptr, ptr %21, align 8, !tbaa !64
  %23 = getelementptr inbounds ptr, ptr %22, i64 1
  %24 = load ptr, ptr %23, align 8, !tbaa !45
  %25 = load ptr, ptr %2, align 8, !tbaa !53
  %26 = getelementptr inbounds nuw %struct.client, ptr %25, i32 0, i32 8
  %27 = load ptr, ptr %26, align 8, !tbaa !54
  %28 = getelementptr inbounds nuw %struct.redisDb, ptr %27, i32 0, i32 7
  %29 = load i32, ptr %28, align 8, !tbaa !65
  call void @createDumpPayload(ptr noundef %4, ptr noundef %19, ptr noundef %24, i32 noundef %29)
  %30 = load ptr, ptr %2, align 8, !tbaa !53
  %31 = getelementptr inbounds nuw %struct._rio, ptr %4, i32 0, i32 9
  %32 = getelementptr inbounds nuw %struct.anon.0, ptr %31, i32 0, i32 0
  %33 = load ptr, ptr %32, align 8, !tbaa !12
  call void @addReplyBulkSds(ptr noundef %30, ptr noundef %33)
  store i32 1, ptr %5, align 4
  br label %34

34:                                               ; preds = %18, %16
  call void @llvm.lifetime.end.p0(i64 112, ptr %4) #14
  call void @llvm.lifetime.end.p0(i64 8, ptr %3) #14
  ret void
}