; Function Attrs: nounwind uwtable
define dso_local void @dumpCommand(ptr noundef %0) local_unnamed_addr #0 {
  %2 = alloca %struct._rio, align 8
  call void @llvm.lifetime.start.p0(i64 112, ptr nonnull %2) #16
  %3 = getelementptr inbounds nuw i8, ptr %0, i64 32
  %4 = load ptr, ptr %3, align 8, !tbaa !47
  %5 = getelementptr inbounds nuw i8, ptr %0, i64 96
  %6 = load ptr, ptr %5, align 8, !tbaa !58
  %7 = getelementptr inbounds nuw i8, ptr %6, i64 8
  %8 = load ptr, ptr %7, align 8, !tbaa !59
  %9 = tail call ptr @lookupKeyRead(ptr noundef %4, ptr noundef %8) #16
  %10 = icmp eq ptr %9, null
  br i1 %10, label %11, label %12

11:                                               ; preds = %1
  tail call void @addReplyNull(ptr noundef nonnull %0) #16
  br label %21

12:                                               ; preds = %1
  %13 = load ptr, ptr %5, align 8, !tbaa !58
  %14 = getelementptr inbounds nuw i8, ptr %13, i64 8
  %15 = load ptr, ptr %14, align 8, !tbaa !59
  %16 = load ptr, ptr %3, align 8, !tbaa !47
  %17 = getelementptr inbounds nuw i8, ptr %16, i64 56
  %18 = load i32, ptr %17, align 8, !tbaa !60
  call void @createDumpPayload(ptr noundef nonnull %2, ptr noundef nonnull %9, ptr noundef %15, i32 noundef %18)
  %19 = getelementptr inbounds nuw i8, ptr %2, i64 72
  %20 = load ptr, ptr %19, align 8, !tbaa !5
  call void @addReplyBulkSds(ptr noundef nonnull %0, ptr noundef %20) #16
  br label %21

21:                                               ; preds = %12, %11
  call void @llvm.lifetime.end.p0(i64 112, ptr nonnull %2) #16
  ret void
}